(dp1
S'picture'
p2
(dp3
S'type'
p4
S'upload'
p5
sS'sortable'
p6
I6
sS'sql'
p7
S'CHAR(512)'
p8
ssS'name'
p9
(dp10
g4
S'string'
p11
sg6
I3
sg7
S'CHAR(512)'
p12
ssS'vaccinated'
p13
(dp14
g4
S'boolean'
p15
sg6
I5
sg7
S'CHAR(1)'
p16
ssS'type'
p17
(dp18
g4
g11
sg6
I4
sg7
S'CHAR(512)'
p19
ssS'id'
p20
(dp21
g4
S'id'
p22
sg6
I1
sg7
S'INTEGER PRIMARY KEY AUTOINCREMENT'
p23
ssS'owner_id'
p24
(dp25
g4
S'reference users'
p26
sg6
I2
sg7
S'INTEGER REFERENCES users(id) ON DELETE CASCADE'
p27
ss.